(lp1
S'PetSmart'
p2
aS'Pfizer'
p3
aS'Phillips 66'
p4
aS'Pier 1 Imports'
p5
aS'Piggybackr'
p6
aS"Pilgrim's Pride"
p7
aS'Pinnacle Systems'
p8
aS'Pioneer Natural Resources'
p9
aS'Piper Jaffray'
p10
aS'Pitney Bowes'
p11
aS'Pizza Hut'
p12
aS'Plains All American Pipeline'
p13
aS'Planet Hollywood'
p14
aS'Plantronics'
p15
aS'PNY Technologies'
p16
aS'Polaroid Corporation'
p17
aS'Polaris Industries'
p18
aS'Popeyes Louisiana Kitchen'
p19
aS'PPG Industries'
p20
aS'Praxair'
p21
aS'Precision Castparts Corp.'
p22
aS'Prestige Brands'
p23
aS'Priceline.com'
p24
aS'PricewaterhouseCoopers'
p25
aS'Primerica'
p26
aS'Principal Financial Group'
p27
aS'Procter &amp; Gamble'
p28
aS'Progressive Corporation'
p29
aS'Prudential Financial'
p30
aS'PSSC Labs'
p31
aS'Public Storage'
p32
aS'Publishers Clearing House'
p33
aS'Publix'
p34
aS'QCR Holdings'
p35
aS'Qualcomm'
p36
aS'Quanta Services'
p37
aS'Quantum Corporation'
p38
aS'Quest Diagnostics'
p39
aS'Quest Software'
p40
aS'Qwest'
p41
aS'R.J. Corman Railroad Group'
p42
aS'RadioShack'
p43
aS'Ralcorp'
p44
aS"Raley's Supermarkets"
p45
aS'Rambus'
p46
aS'Rand McNally'
p47
aS'Raybestos'
p48
aS'Raycom Media'
p49
aS'Raymond James Financial'
p50
aS'Raytheon'
p51
aS'RCA'
p52
aS'Realogy'
p53
aS'Red Hat'
p54
aS'Regal-Beloit'
p55
aS'Regal Entertainment Group'
p56
aS'Regions Financial Corporation'
p57
aS'Regis Corporation'
p58
aS'Reliance Steel &amp; Aluminum Co.'
p59
aS'Renco Group'
p60
aS'Rent-A-Center'
p61
aS'Renys'
p62
aS'Respironics'
p63
aS'Reynolds American'
p64
aS'Riceland Foods'
p65
aS'Rite Aid'
p66
aS'Roark Capital Group'
p67
aS'Robert Half International'
p68
aS'Robinson Helicopter Company'
p69
aS'Rockstar Games'
p70
aS'Rockwell Automation'
p71
aS'Rockwell Collins'
p72
aS'Rollins Inc.'
p73
aS'Round Table Pizza'
p74
aS'Roush Performance'
p75
aS'Rowan Companies'
p76
aS'Royal Caribbean International'
p77
aS'RPM International'
p78
aS'RR Donnelley'
p79
aS'Russell Investments'
p80
aS'Russell Stover Candies'
p81
aS'Ryder'
p82
aS'Ryland Homes'
p83
aS'S3 Graphics'
p84
aS'Safeco'
p85
aS'Safeway Inc.'
p86
aS'SanDisk'
p87
aS'Sara Lee Corporation'
p88
aS'Save Mart Supermarkets'
p89
aS'Savers'
p90
aS'Sbarro'
p91
aS'Schlumberger'
p92
aS'Schnitzer Steel Industries'
p93
aS'Schnucks'
p94
aS"Schoep's Ice Cream"
p95
aS'Schwan Food Company'
p96
aS'Scottrade'
p97
aS'The Scotts Miracle-Gro Company'
p98
aS'Scripps Networks Interactive'
p99
aS'Seaboard Corporation'
p100
aS'Seagate Technology'
p101
aS'Sears'
p102
aS'Sequoia Capital'
p103
aS'Sherwin-Williams'
p104
aS'Shirokiya'
p105
aS"Shoney's"
p106
aS"Shop 'n Save"
p107
aS'Shure'
p108
aS'Shutterstock'
p109
aS'Sierra Nevada Brewing Company'
p110
aS'Sierra Nevada Corporation'
p111
aS'Sigma-Aldrich'
p112
aS'Silicon Graphics International'
p113
aS'Silicon Image'
p114
aS'Silver Lake Partners'
p115
aS'Simon Property Group'
p116
aS'Sinclair Oil Corporation'
p117
aS'Six Flags'
p118
aS'Sizzler'
p119
aS'Skechers'
p120
aS'Smart &amp; Final'
p121
aS'Smith &amp; Wesson'
p122
aS'Sonic Solutions'
p123
aS"Sotheby's"
p124
aS'Southern California Edison'
p125
aS'Gateway, Inc.'
p126
aS'GEICO'
p127
aS'Genentech'
p128
aS'Generac Power Systems'
p129
aS'General Atomics'
p130
aS'General Cable'
p131
aS'General Dynamics'
p132
aS'General Electric'
p133
aS'General Fibre Company'
p134
aS'General Mills'
p135
aS'General Motors'
p136
aS'Gentiva Health Services'
p137
aS'Genuine Parts Company'
p138
aS'Genworth Financial'
p139
aS'Georgia-Pacific'
p140
aS'Gerber Scientific'
p141
aS'GHD Group'
p142
aS'Gibson Guitar Corporation'
p143
aS'Gilead Sciences'
p144
aS'Global Insight'
p145
aS'GlobalFoundries'
p146
aS'Gojo Industries'
p147
aS'Golden Corral'
p148
aS'Goldman Sachs'
p149
aS'Goodyear Tire and Rubber Company'
p150
aS'Google'
p151
aS'Gordon Food Service'
p152
aS'Graham Holdings Company'
p153
aS'The Greenbrier Companies'
p154
aS'Ground Round'
p155
aS'Group O'
p156
aS'Growmark'
p157
aS'H-E-B'
p158
aS'H. T. Hackney Company'
p159
aS'Haas Automation'
p160
aS'Hain Celestial Group'
p161
aS'Halliburton'
p162
aS'Hallmark Cards'
p163
aS'Harbor Freight Tools'
p164
aS'Hard Rock Cafe'
p165
aS'Harley-Davidson'
p166
aS'Harman International Industries'
p167
aS'Harris Corporation'
p168
aS'Hartzell Propeller'
p169
aS'Hasbro'
p170
aS'Hastings Entertainment'
p171
aS'Hawley Products Company'
p172
aS'HC2 Holdings'
p173
aS'Henry Repeating Arms'
p174
aS'Herbalife'
p175
aS'The Hershey Company'
p176
aS'The Hertz Corporation'
p177
aS'Hess Corporation'
p178
aS'Hewlett Packard Enterprise'
p179
aS'Hi-Point Firearms'
p180
aS'HNI Corporation'
p181
aS'Hobby Lobby'
p182
aS'Holley Performance Products'
p183
aS'The Home Depot'
p184
aS'Honeywell'
p185
aS'Hospital Corporation of America'
p186
aS'Hostess Brands'
p187
aS'Hot Topic'
p188
aS'Houchens Industries'
p189
aS'Houghton Mifflin Harcourt Learning Technology'
p190
aS'HP Inc.'
p191
aS'Hughes Communications'
p192
aS'Humana'
p193
aS'Huntington Ingalls Industries'
p194
aS'Huntsman Corporation'
p195
aS'Hy-Vee'
p196
aS'Hyland Software'
p197
aS'IBM'
p198
aS'Iconix Brand Group'
p199
aS'Ideal Industries'
p200
aS'Ilitch Holdings'
p201
aS'Illinois Tool Works'
p202
aS'In-N-Out Burger'
p203
aS'Infinity Ward'
p204
aS'Ingram Industries'
p205
aS'Ingram Micro'
p206
aS'Intel'
p207
aS'Intellectual Ventures'
p208
aS'Interactive Brokers'
p209
aS'International Flavors &amp; Fragrances'
p210
aS'International Hat Company'
p211
aS'International Paper'
p212
aS'Interplay Entertainment'
p213
aS'Interstate Batteries'
p214
aS'Intuit'
p215
aS'Intuitive Surgical'
p216
aS'DirecTV'
p217
aS'Discover Financial'
p218
aS'Discovery Communications'
p219
aS'Dish Network'
p220
aS'DivX, Inc.'
p221
aS'Djarum'
p222
aS'Dogfish Head Brewery'
p223
aS'Dole Food Company'
p224
aS'Dollar General'
p225
aS'Dollar Tree'
p226
aS"Domino's Pizza"
p227
aS'Domtar'
p228
aS'Dorm Company Corporation'
p229
aS'Dover Corporation'
p230
aS'Dow Chemical Company'
p231
aS'Dow Jones &amp; Company'
p232
aS'Dr Pepper Snapple Group'
p233
aS'Dresser Industries'
p234
aS'DTE Energy'
p235
aS'Duke Energy'
p236
aS'Dun &amp; Bradstreet'
p237
aS"Dunkin' Donuts"
p238
aS'DXC Technology'
p239
aS'DynCorp'
p240
aS'Dynegy'
p241
aS'Eastman Chemical Company'
p242
aS'Eaton Corporation'
p243
aS'EBSCO Industries'
p244
aS'EchoStar'
p245
aS'Ecolab'
p246
aS'Eddie Bauer'
p247
aS'Edwards Lifesciences'
p248
aS'El Pollo Loco'
p249
aS'Electronic Arts'
p250
aS'Electronic Data Systems'
p251
aS'Eli Lilly and Company'
p252
aS'Emcor'
p253
aS'Emerson Radio'
p254
aS'Enterasys Networks'
p255
aS'Entergy'
p256
aS'Enterprise Holdings'
p257
aS'Enterprise Products'
p258
aS'EOG Resources'
p259
aS'Equifax'
p260
aS'Equinix'
p261
aS'Erie Insurance Group'
p262
aS'Est\xc3\xa9e Lauder Companies'
p263
aS'Esterline'
p264
aS'Exelon'
p265
aS'Expeditors International'
p266
aS'Express Scripts'
p267
aS'Extron'
p268
aS'ExxonMobil'
p269
aS'F5 Networks'
p270
aS'Fabletics'
p271
aS'Fairchild Semiconductor'
p272
aS'Farmers Insurance Group'
p273
aS'Federal Signal Corporation'
p274
aS'FedEx'
p275
aS'Fender Musical Instruments Corporation'
p276
aS'Fenway Partners'
p277
aS'FICO'
p278
aS'Fidelity Investments'
p279
aS'Firestone Tire and Rubber Company'
p280
aS'First Hawaiian Bank'
p281
aS'Firstsource'
p282
aS'Fiserv'
p283
aS'Fisher Electronics'
p284
aS'Fisker Automotive'
p285
aS'Fisker Inc.'
p286
aS'FLIR Systems'
p287
aS'Flowers Foods'
p288
aS'Flowserve'
p289
aS'Fluor Corporation'
p290
aS'FMC Technologies'
p291
aS'Focus Brands'
p292
aS'Foot Locker'
p293
aS'Ford Motor Company'
p294
aS'Forest Laboratories'
p295
aS'Forrester Research'
p296
aS'Forum Communications'
p297
aS'Fosters Freeze'
p298
aS'Fox Entertainment Group'
p299
aS'Frasca International'
p300
aS'Fred Meyer'
p301
aS'Freedom Group'
p302
aS'Freeport-McMoRan'
p303
aS'Freescale Semiconductor'
p304
aS'FreeWave Technologies'
p305
aS'Fresh &amp; Easy'
p306
aS'Friedman Fleischer &amp; Lowe'
p307
aS'Frontier Communications'
p308
aS'Fruit of the Loom'
p309
aS"Fry's Electronics"
p310
aS'GameStop'
p311
aS'Gannett Company'
p312
aS'Gardner Denver'
p313
aS'Garmin'
p314
aS'Gartner'
p315
aS'U.S. Steel'
p316
aS'U.S. Venture Partners'
p317
aS'USG Corporation'
p318
aS'USRobotics'
p319
aS'UTStarcom'
p320
aS'Uwajimaya'
p321
aS'W. C. Bradley Co.'
p322
aS'W. L. Gore and Associates'
p323
aS'W. R. Grace and Company'
p324
aS'W. W. Grainger'
p325
aS'Wabash National'
p326
aS'Wabtec Corporation'
p327
aS'Waffle House'
p328
aS'Wakefern Food Corporation'
p329
aS'Walgreens'
p330
aS'Walmart'
p331
aS'The Walt Disney Company'
p332
aS'Warburg Pincus'
p333
aS'Warner Bros.'
p334
aS'Washburn Guitars'
p335
aS'Waters Corporation'
p336
aS'Watkins-Johnson Company'
p337
aS'Wausau Paper'
p338
aS'Wawa Inc.'
p339
aS'The Weinstein Company'
p340
aS'Weis Markets'
p341
aS"Welch's"
p342
aS'Wells Fargo'
p343
aS'West Liberty Foods'
p344
aS'Westat'
p345
aS'Western Digital'
p346
aS'Western Refining'
p347
aS'Western Sugar Cooperative'
p348
aS'Western Union'
p349
aS'Weyerhaeuser'
p350
aS'Whataburger'
p351
aS'Whirlpool Corporation'
p352
aS'Whole Foods Market'
p353
aS'Wienerschnitzel'
p354
aS'William Blair &amp; Company'
p355
aS'Williams Companies'
p356
aS'Williams-Sonoma'
p357
aS'Winn-Dixie'
p358
aS'Winnebago Industries'
p359
aS'Wizards of the Coast'
p360
aS'Woodward, Inc.'
p361
aS'World Financial Group'
p362
aS'World Fuel Services'
p363
aS'Worthington Industries'
p364
aS'Wyndham Worldwide'
p365
aS'Wynn Resorts'
p366
aS'X-Rite'
p367
aS'Xcel Energy'
p368
aS'Xerox'
p369
aS'Xilinx'
p370
aS'XIM, Inc.'
p371
aS'Xylem Inc.'
p372
aS'YRC Worldwide'
p373
aS'Yum! Brands'
p374
aS'Yum-Yum Donuts'
p375
aS'Zale Corporation'
p376
aS"Zaxby's"
p377
aS'Zenith Electronics'
p378
aS'Zilog'
p379
aS'Zumiez'
p380
aS'Adventure International'
p381
aS'Airborne Express'
p382
aS'Amoskeag Manufacturing Company'
p383
aS'Arbusto Energy'
p384
aS'Butler International'
p385
aS'Enron'
p386
aS'Gulf Oil'
p387
aS'Kozmo.com'
p388
aS'Lehman Brothers'
p389
aS'Palantir Technologies'
p390
aS'Rockwell International'
p391
aS'Meijer'
p392
aS'Menards'
p393
aS'Mentor Graphics'
p394
aS'Merck &amp; Co.'
p395
aS'Mercury Insurance Group'
p396
aS'Mercury Marine'
p397
aS'Meredith Corporation'
p398
aS'Meritor'
p399
aS'MetLife'
p400
aS'Microchip Technology'
p401
aS'Microsoft'
p402
aS'MicroStrategy'
p403
aS'Midway Games'
p404
aS'Midwest Communications'
p405
aS'MIG, Inc.'
p406
aS'Miller Brewing Company'
p407
aS'Miro Technologies'
p408
aS'Mohawk Industries'
p409
aS'Molycorp'
p410
aS'Monsanto'
p411
aS'Morgan Stanley'
p412
aS'Motorola'
p413
aS'Movado'
p414
aS'MTX Audio'
p415
aS'Musco Lighting'
p416
aS'Mutual of Omaha'
p417
aS'Nabisco'
p418
aS'NACCO Industries'
p419
aS'Nalge Nunc International'
p420
aS'National Beverage'
p421
aS'National Oilwell Varco'
p422
aS'National Presto Industries'
p423
aS'National Railway Equipment Company'
p424
aS'Nationwide Mutual Insurance Company'
p425
aS'Nautilus, Inc.'
p426
aS'NBCUniversal'
p427
aS'NCR Corporation'
p428
aS'Necco'
p429
aS'NetApp'
p430
aS'Netcordia'
p431
aS'Netgear'
p432
aS'NetZero'
p433
aS'New Balance'
p434
aS'New Era Tickets'
p435
aS'New York Life Insurance Company'
p436
aS'Newfield Exploration'
p437
aS'Newmont Mining Corporation'
p438
aS'News Corporation'
p439
aS'Niagara Therapy'
p440
aS'Nike, Inc.'
p441
aS'NL Industries'
p442
aS'Noble Energy'
p443
aS'Nordstrom'
p444
aS'Norfolk Southern Railway'
p445
aS'North Sails'
p446
aS'Northrop Grumman'
p447
aS'Norwegian Cruise Line'
p448
aS'Novell'
p449
aS'Novellus Systems'
p450
aS'NRG Energy'
p451
aS'Nuance Communications'
p452
aS'Nucor'
p453
aS'Nvidia'
p454
aS'NYSE Euronext'
p455
aS'O.F. Mossberg &amp; Sons'
p456
aS'Oak Hill Capital Partners'
p457
aS'Oaktree Capital Management'
p458
aS'Oberto Sausage Company'
p459
aS'Oberweis Dairy'
p460
aS'Occidental Petroleum'
p461
aS'Oceaneering International'
p462
aS'Office Depot'
p463
aS'OfficeMax'
p464
aS'Olan Mills'
p465
aS'Old Dominion Freight Line'
p466
aS'Olin Corporation'
p467
aS'Olympic Steel'
p468
aS'Omaha Steaks'
p469
aS'The Omni Group'
p470
aS'Omnicare'
p471
aS'Omnicom Group'
p472
aS'ON Semiconductor'
p473
aS'Onanon'
p474
aS'ONEOK'
p475
aS'Onvia'
p476
aS'Open Interface North America'
p477
aS'Opower'
p478
aS'OptiRTC'
p479
aS'Oracle Corporation'
p480
aS'Orbital Sciences Corporation'
p481
aS"O'Reilly Auto Parts"
p482
aS'Oshkosh Corporation'
p483
aS'Outerwall'
p484
aS'Owens Corning'
p485
aS'Owens-Illinois'
p486
aS'Pabst Brewing Company'
p487
aS'Pacer International'
p488
aS'Pall Corporation'
p489
aS'Panda Energy International'
p490
aS'Panda Express'
p491
aS'Panera Bread'
p492
aS"Papa John's Pizza"
p493
aS"Papa Murphy's"
p494
aS'Paramount Pictures'
p495
aS'Park Seed Company'
p496
aS'Patterson Companies'
p497
aS'Paxton Media Group'
p498
aS'Payless ShoeSource'
p499
aS'Peabody Energy'
p500
aS"Pearson's Candy Company"
p501
aS'Penske Corporation'
p502
aS'Pep Boys'
p503
aS'PepsiCo'
p504
aS'Perdue Farms'
p505
aS'PerkinElmer'
p506
aS'Perrigo'
p507
aS'Perry Ellis International'
p508
aS'Peterbilt'
p509
aS'Southern Progress Corporation'
p510
aS'Southern Wine &amp; Spirits'
p511
aS'Soyo Group'
p512
aS'Space Adventures'
p513
aS'Spansion'
p514
aS'Spanx'
p515
aS'Spectra Energy'
p516
aS'Spectrum Brands'
p517
aS'Speedway Motorsports'
p518
aS'Spirit AeroSystems'
p519
aS'Springfield Armory, Inc.'
p520
aS'Sprint Corporation'
p521
aS'SPX Corporation'
p522
aS'Stanley Black &amp; Decker'
p523
aS'Staples Inc.'
p524
aS'Starbucks'
p525
aS'State Farm Insurance'
p526
aS'State Street Corporation'
p527
aS"Steak 'n Shake"
p528
aS'Steel Dynamics'
p529
aS'Steinway &amp; Sons'
p530
aS'Stephens Inc.'
p531
aS'Stericycle'
p532
aS'Sterling Ledet &amp; Associates'
p533
aS"Stew Leonard's"
p534
aS'Stewart &amp; Stevenson'
p535
aS'Storage Technology Corporation'
p536
aS'Stryker Corporation'
p537
aS"Stuckey's"
p538
aS'Sun Capital Partners'
p539
aS'Sun Products'
p540
aS'Sunoco'
p541
aS'Sunrise Senior Living'
p542
aS'Super One Foods'
p543
aS'Sur La Table'
p544
aS'Survata'
p545
aS'Swayne, Robinson and Company'
p546
aS'Sweet Frog'
p547
aS'SweetWater Brewing Company'
p548
aS'Symantec'
p549
aS'Symetra'
p550
aS'Synopsys'
p551
aS'Syntel'
p552
aS'T. Rowe Price'
p553
aS'Take-Two Interactive'
p554
aS'Talbots'
p555
aS'Talend'
p556
aS'Target Corporation'
p557
aS'Tastee-Freez'
p558
aS'TD Ameritrade'
p559
aS'Tektronix'
p560
aS'Teledyne Technologies'
p561
aS'Tellabs'
p562
aS'Tempur-Pedic'
p563
aS'Tenet Healthcare'
p564
aS'Teradata'
p565
aS'Teradyne'
p566
aS'Tesoro'
p567
aS'Texas Instruments'
p568
aS'Textron'
p569
aS'Thermo Fisher Scientific'
p570
aS'Thor Industries'
p571
aS'THQ'
p572
aS'Time Warner'
p573
aS'Timken Company'
p574
aS'TiVo Inc.'
p575
aS'TJX Companies'
p576
aS'Toll Brothers'
p577
aS"Tony Roma's"
p578
aS'Tootsie Roll Industries'
p579
aS'Torry Harris Business Solutions'
p580
aS'Towers Perrin'
p581
aS'TPG Capital'
p582
aS"Trader Joe's"
p583
aS'Transamerica Corporation'
p584
aS'TransDigm Group'
p585
aS'The Travelers Companies'
p586
aS'Traxxas'
p587
aS'TreeRing'
p588
aS'Trek Bicycle Corporation'
p589
aS'Trianz'
p590
aS'Trijicon'
p591
aS'Trinity Industries'
p592
aS'Triumph Group'
p593
aS'TRW Automotive'
p594
aS'Tuff Shed'
p595
aS"Tully's Coffee"
p596
aS'Tupperware Brands'
p597
aS'Turtle Wax'
p598
aS'Tyr Sport, Inc.'
p599
aS'Tyson Foods'
p600
aS'U-Haul'
p601
aS'UberOffices'
p602
aS'Ultimate Software'
p603
aS'Under Armour'
p604
aS'Unified Grocers'
p605
aS'Unify Square'
p606
aS'Union Pacific Railroad'
p607
aS'Unisys'
p608
aS'United Country Real Estate'
p609
aS'United Rentals'
p610
aS'United States Enrichment Corporation'
p611
aS'UnitedHealth Group'
p612
aS'Universal Forest Products'
p613
aS'Upland Brewing Company'
p614
aS'Upper Deck Company'
p615
aS'Urban Outfitters'
p616
aS'U.S. Bancorp'
p617
aS'U.S. Cellular'
p618
aS'US Foods'
p619
aS'US Highland'
p620
aS'Caterpillar Inc.'
p621
aS'Cbeyond'
p622
aS'CBS Corporation'
p623
aS'CDI Corporation'
p624
aS'CEB Inc.'
p625
aS'Celgene'
p626
aS'CenturyLink'
p627
aS'Cerberus Capital Management'
p628
aS'Ceridian'
p629
aS'Cerner'
p630
aS'CF Industries'
p631
aS'Charles Schwab Corporation'
p632
aS'Charter Arms'
p633
aS'The Cheesecake Factory'
p634
aS'Chem-Dry'
p635
aS'Chesapeake Energy'
p636
aS'Chevron Corporation'
p637
aS'Chicago Bridge &amp; Iron Company'
p638
aS'Chick-fil-A'
p639
aS'Chipotle Mexican Grill'
p640
aS'Chiquita Brands International'
p641
aS'CHS Inc.'
p642
aS"Chuck E. Cheese's"
p643
aS'Chugach Alaska Corporation'
p644
aS'Church &amp; Dwight'
p645
aS'Chrysler'
p646
aS'Cinemark Theatres'
p647
aS'Cisco Systems'
p648
aS'CIT Group'
p649
aS'Citigroup'
p650
aS'Citrin Cooperman'
p651
aS'Citrix Systems'
p652
aS'CKE Restaurants'
p653
aS'Clayton, Dubilier &amp; Rice'
p654
aS'Clearwater Paper'
p655
aS'Cliffs Natural Resources'
p656
aS'CME Group'
p657
aS'CNA Financial'
p658
aS'CNO Financial Group'
p659
aS'The Coca-Cola Company'
p660
aS'Cogent Communications'
p661
aS'Cole Haan'
p662
aS'Coleman Company'
p663
aS'Colgate-Palmolive'
p664
aS"Colt's Manufacturing Company"
p665
aS'Columbia Pictures'
p666
aS'Columbia Sportswear'
p667
aS'Columbia Sussex'
p668
aS'Comcast'
p669
aS'Comerica'
p670
aS'Commercial Metals Company'
p671
aS'Compuware'
p672
aS'Conair Corporation'
p673
aS'Concur Technologies'
p674
aS'ConocoPhillips'
p675
aS'Consol Energy'
p676
aS'Constellation Brands'
p677
aS'ConverDyn'
p678
aS'Convergys'
p679
aS'CoolTouch Monitors'
p680
aS'Corning Inc.'
p681
aS'Costco'
p682
aS'Coventry Health Care'
p683
aS'Cox Enterprises'
p684
aS'Cracker Barrel'
p685
aS'Craft Brew Alliance'
p686
aS'Cray'
p687
aS'Crazy Eddie'
p688
aS'Crown Equipment Corporation'
p689
aS'Crown Holdings'
p690
aS'CSX Corporation'
p691
aS'Cubic Corporation'
p692
aS'Cumberland Farms'
p693
aS'Cummins'
p694
aS'Curtiss-Wright'
p695
aS'Curves International'
p696
aS'CVS Caremark'
p697
aS'Cypress Semiconductor'
p698
aS'D. R. Horton'
p699
aS'Daktronics'
p700
aS'Darden Restaurants'
p701
aS'DaVita'
p702
aS'Dayton Superior'
p703
aS'DC Comics'
p704
aS'DC Shoes'
p705
aS'Dean Foods'
p706
aS'Del Monte Foods'
p707
aS'Dell'
p708
aS'Deloitte'
p709
aS'Deluxe Corporation'
p710
aS'Demaco'
p711
aS'Denbury Resources'
p712
aS"Denny's"
p713
aS'Devon Energy'
p714
aS'DEX One'
p715
aS'Diamond Foods'
p716
aS'Diamond Offshore Drilling'
p717
aS"Dick's Sporting Goods"
p718
aS'Diebold'
p719
aS'Digi-Key'
p720
aS"Dillard's"
p721
aS'DineEquity'
p722
aS"Dippin' Dots"
p723
aS'Invesco'
p724
aS'Ion Media Networks'
p725
aS'IRobot'
p726
aS'ITT Corporation'
p727
aS'IXYS Corporation'
p728
aS'J. C. Penney'
p729
aS'The J.M. Smucker Company'
p730
aS'Jabil Circuit'
p731
aS'Jack in the Box'
p732
aS'Jacobs Engineering Group'
p733
aS'Jamba Juice'
p734
aS'Janus Capital Group'
p735
aS'Jarden'
p736
aS"Jimmy John's"
p737
aS'JL Audio'
p738
aS'JN-International Medical Corporation'
p739
aS'Johnson &amp; Johnson'
p740
aS'Johnson Controls'
p741
aS'Johnsonville Foods'
p742
aS'Jones Soda'
p743
aS'JPMorgan Chase'
p744
aS'Juniper Networks'
p745
aS'K-Swiss'
p746
aS'Kahr Arms'
p747
aS'Kaiser Aluminum'
p748
aS'Kaiser Permanente'
p749
aS'KB Home'
p750
aS'Kelly Services'
p751
aS'Kenexa'
p752
aS'Kennametal'
p753
aS'Kenworth'
p754
aS'Kerr-McGee'
p755
aS'KeyBank'
p756
aS'Kiewit Corporation'
p757
aS'Kimball International'
p758
aS'Kimber Manufacturing'
p759
aS'Kimberly-Clark'
p760
aS'Kinder Morgan'
p761
aS'Kingston Technology'
p762
aS'Klipsch Audio Technologies'
p763
aS'Kmart'
p764
aS"Knight's Armament Company"
p765
aS'Koch Industries'
p766
aS"Kohl's"
p767
aS'KPMG'
p768
aS'Kraft Foods'
p769
aS'Krispy Kreme'
p770
aS'Kroger'
p771
aS'L Brands'
p772
aS'L.L.Bean'
p773
aS'La-Z-Boy'
p774
aS'LabCorp'
p775
aS'Lam Research'
p776
aS'Laserfiche'
p777
aS'LeapFrog Enterprises'
p778
aS'Lear Corporation'
p779
aS'Lee Enterprises'
p780
aS'Legg Mason'
p781
aS'Leggett &amp; Platt'
p782
aS'Leidos'
p783
aS'Lennar Corporation'
p784
aS'Lennox International'
p785
aS'Leonard Green &amp; Partners'
p786
aS'Les Schwab Tire Centers'
p787
aS'Leucadia National'
p788
aS'Levi Strauss &amp; Co.'
p789
aS'Lexmark'
p790
aS'Liberty Global'
p791
aS'Liberty Media'
p792
aS'Liberty Mutual'
p793
aS'Liberty Tax Service'
p794
aS'Lincoln Industries'
p795
aS'Lincoln National Corporation'
p796
aS'Line and Space'
p797
aS'Linear Technology'
p798
aS'Little Caesars'
p799
aS'Live Nation Entertainment'
p800
aS'Lockheed Martin'
p801
aS'Loews Corporation'
p802
aS"Long John Silver's"
p803
aS'Loral Space &amp; Communications'
p804
aS'Louisiana-Pacific'
p805
aS"Love's Travel Stops &amp; Country Stores"
p806
aS"Lowe's"
p807
aS'LSI Corporation'
p808
aS'Lucas Oil'
p809
aS'Lucasfilm'
p810
aS"Macy's"
p811
aS'Madison Dearborn Partners'
p812
aS'Magellan Navigation'
p813
aS'Magnavox'
p814
aS'Magpul Industries'
p815
aS'Marantz'
p816
aS'Marathon Oil'
p817
aS'Marathon Petroleum'
p818
aS'Marble Slab Creamery'
p819
aS'Marlin Firearms'
p820
aS'Mars, Incorporated'
p821
aS'Marsh &amp; McLennan Companies'
p822
aS'Martha Stewart Living Omnimedia'
p823
aS'Martin Marietta Materials'
p824
aS'Marvell Technology Group'
p825
aS'Mary Kay'
p826
aS'MasterCard'
p827
aS'MasterCraft'
p828
aS'Mattel'
p829
aS'Maxim Integrated'
p830
aS'Maxtor'
p831
aS'The McClatchy Company'
p832
aS'McCormick &amp; Company'
p833
aS'MCI Inc.'
p834
aS'McIntosh Laboratory'
p835
aS'McKesson Corporation'
p836
aS'McKinsey &amp; Company'
p837
aS'MD Helicopters'
p838
aS'Mead Johnson'
p839
aS'MeadWestvaco'
p840
aS'Medimix International'
p841
aS'Medtronic'
p842
aS'A. O. Smith'
p843
aS'A. Schulman'
p844
aS'A21, Inc.'
p845
aS"Aaron's, Inc."
p846
aS'Abbott Laboratories'
p847
aS'Abercrombie &amp; Fitch'
p848
aS'ABM Industries'
p849
aS'ABS Capital Partners'
p850
aS'AC Lens'
p851
aS'Academi'
p852
aS'ACCO Brands'
p853
aS'Accuquote'
p854
aS'Accuride Corporation'
p855
aS'Ace Hardware'
p856
aS'Acme Brick'
p857
aS'Acme Fresh Market'
p858
aS'ACN Inc.'
p859
aS'Activision'
p860
aS'Activision Blizzard'
p861
aS'Acuity Brands'
p862
aS'Acuity Insurance'
p863
aS'Adaptec'
p864
aS'ADC Telecommunications'
p865
aS'Adobe Systems'
p866
aS'ADTRAN'
p867
aS'Advance Auto Parts'
p868
aS'Advance Publications'
p869
aS'Advanced Micro Devices'
p870
aS'Advent International'
p871
aS'AECOM'
p872
aS'Aerojet Rocketdyne'
p873
aS'Aetna'
p874
aS'Affiliated Computer Services'
p875
aS'Aflac'
p876
aS'AGCO'
p877
aS'Agilent Technologies'
p878
aS'Agriprocessors'
p879
aS'Air Products &amp; Chemicals'
p880
aS'Air Tractor'
p881
aS'Airgas'
p882
aS'Airhitch'
p883
aS'AirTran Holdings'
p884
aS'AK Steel Holding'
p885
aS'Alaska Air Group'
p886
aS'Albemarle Corporation'
p887
aS'Alcoa'
p888
aS'Aleris'
p889
aS'Alexander &amp; Baldwin'
p890
aS'Alexion Pharmaceuticals'
p891
aS'Alienware'
p892
aS'Alleghany Corporation'
p893
aS'Allegheny Technologies'
p894
aS'Allegis Group'
p895
aS'Allergan'
p896
aS'Alliant Energy'
p897
aS'Alliant Techsystems'
p898
aS'Allied Insurance'
p899
aS'Allison Transmission'
p900
aS'Allstate'
p901
aS'Ally Financial'
p902
aS'Alphabet Inc.'
p903
aS'Altec Lansing'
p904
aS'Altra Industrial Motion'
p905
aS'Ameren'
p906
aS'American Apparel'
p907
aS'American Axle'
p908
aS'American Eagle Outfitters'
p909
aS'American Electric Power'
p910
aS'American Express'
p911
aS'American Family Insurance'
p912
aS'American Financial Group'
p913
aS'American Greetings'
p914
aS'American Home Mortgage'
p915
aS'American International Group'
p916
aS'American Licorice Company'
p917
aS'Amerigroup'
p918
aS'Ameriprise Financial'
p919
aS'AmerisourceBergen'
p920
aS'Ametek'
p921
aS'Amgen'
p922
aS'Amkor Technology'
p923
aS'Amphenol'
p924
aS'AMR Corporation'
p925
aS'Amway'
p926
aS"Amy's Kitchen"
p927
aS'Analog Devices'
p928
aS'AnaSpec'
p929
aS'Anchor Bay Entertainment'
p930
aS'Anchor Brewing Company'
p931
aS'AND1'
p932
aS'Andersen Corporation'
p933
aS"Andronico's"
p934
aS'Anixter'
p935
aS'Annabelle Candy Company'
p936
aS'Ansys'
p937
aS'Antec'
p938
aS'AOL'
p939
aS'Apache Corporation'
p940
aS'Apollo Global Management'
p941
aS'Apple Inc.'
p942
aS"Applebee's"
p943
aS'Applico'
p944
aS'Applied Biosystems'
p945
aS'Applied Industrial Technologies'
p946
aS'Applied Materials'
p947
aS'Apptio'
p948
aS'Aramark'
p949
aS'Arc Machines'
p950
aS'Arch Coal'
p951
aS'Archer Daniels Midland'
p952
aS'Arctic Cat'
p953
aS'Arizona Beverage Company'
p954
aS'Arkeia Software'
p955
aS'Armstrong World Industries'
p956
aS'Arrow Electronics'
p957
aS'Asbury Automotive Group'
p958
aS'Ashland Inc.'
p959
aS'Ashley Furniture Industries'
p960
aS'AskMeNow'
p961
aS'Associated Electrics'
p962
aS'Assurant'
p963
aS'AT Conference, Inc.'
p964
aS'Atlas Van Lines'
p965
aS'Atmos Energy'
p966
aS'Au Bon Pain'
p967
aS'Auto-Owners Insurance'
p968
aS'Autodesk'
p969
aS'Autoliv'
p970
aS'Automatic Data Processing'
p971
aS'AutoNation'
p972
aS'AutoZone'
p973
aS'Avaya'
p974
aS'Avery Dennison'
p975
aS'Avis Budget Group'
p976
aS'Avnet'
p977
aS'Avon Products'
p978
aS'AVST'
p979
aS'B/E Aerospace'
p980
aS'Babcock &amp; Wilcox'
p981
aS'Bain &amp; Company'
p982
aS'Bain Capital'
p983
aS'Baker Hughes'
p984
aS'Baldor Electric Company'
p985
aS'Ball Corporation'
p986
aS'Ballistic Recovery Systems'
p987
aS'Bank of America'
p988
aS'Barnes &amp; Noble'
p989
aS'Barrett Firearms Manufacturing'
p990
aS'Bass Pro Shops'
p991
aS'Bath &amp; Body Works'
p992
aS'Baxter International'
p993
aS'BearingPoint'
p994
aS'Beazer Homes USA'
p995
aS'Bechtel'
p996
aS'Beckman Coulter'
p997
aS'Becton Dickinson'
p998
aS'Bed Bath &amp; Beyond'
p999
aS'Beechcraft'
p1000
aS'Belk'
p1001
aS'Belkin'
p1002
aS'Bellwether Technology Corporation'
p1003
aS'Bemis Manufacturing Company'
p1004
aS'Benchmark Electronics'
p1005
aS'Benihana'
p1006
aS"Bennigan's"
p1007
aS'Berkshire Hathaway'
p1008
aS'Berry Plastics'
p1009
aS'Best Buy'
p1010
aS'BFG Technologies'
p1011
aS'Big 5 Sporting Goods'
p1012
aS'Big Boy Restaurants'
p1013
aS'Big Lots'
p1014
aS'Bigelow Tea Company'
p1015
aS'Biggby Coffee'
p1016
aS'Bio-Rad Laboratories'
p1017
aS'Biomet'
p1018
aS"BJ's Wholesale Club"
p1019
aS'Black Angus Steakhouse'
p1020
aS'BlackRock'
p1021
aS'Blockbuster LLC'
p1022
aS"Bloomin' Brands"
p1023
aS'BlueLinx'
p1024
aS'Blyth, Inc.'
p1025
aS'BMC Software'
p1026
aS'BNSF Railway'
p1027
aS'Bob Evans Restaurants'
p1028
aS'Boeing'
p1029
aS'Boise Cascade'
p1030
aS'Bollinger Shipyards'
p1031
aS'Books-A-Million'
p1032
aS'Booz Allen Hamilton'
p1033
aS'Borders Group'
p1034
aS'BorgWarner'
p1035
aS'Bose Corporation'
p1036
aS'Boston Acoustics'
p1037
aS'Boston Beer Company'
p1038
aS'Boston Scientific'
p1039
aS'Bowlmor AMF'
p1040
aS'Boyd Gaming'
p1041
aS'Boyer Brothers'
p1042
aS'Bradley Pharmaceuticals'
p1043
aS'Briggs &amp; Stratton'
p1044
aS'BrightPoint'
p1045
aS'Brinker International'
p1046
aS"Brink's"
p1047
aS'Bristol-Myers Squibb'
p1048
aS'Broadcom'
p1049
aS'Brocade Communications Systems'
p1050
aS'Brookdale Senior Living'
p1051
aS'Brooks Brothers'
p1052
aS'Brown-Forman'
p1053
aS'Browning Arms Company'
p1054
aS'Bruker'
p1055
aS'Brunswick Corporation'
p1056
aS'Bungie'
p1057
aS'Burlington Coat Factory'
p1058
aS'Burpee Seeds'
p1059
aS'Burton Snowboards'
p1060
aS'Bushmaster Firearms International'
p1061
aS'CA Technologies'
p1062
aS"Cabela's"
p1063
aS'Cabot Corporation'
p1064
aS'Cabot Oil &amp; Gas'
p1065
aS'CACI'
p1066
aS'Cadence Design Systems'
p1067
aS'California Pizza Kitchen'
p1068
aS'Callaway Golf Company'
p1069
aS'Cameron International'
p1070
aS'Campbell Soup Company'
p1071
aS'Cantor Fitzgerald'
p1072
aS'Capital Group Companies'
p1073
aS'Capital One'
p1074
aS'Cardinal Health'
p1075
aS'CareFusion'
p1076
aS'Cargill'
p1077
aS'Carlisle Companies'
p1078
aS'Carlson Companies'
p1079
aS'CarMax'
p1080
aS'Carnival Corporation &amp; plc'
p1081
aS'Carpenter Technology Corporation'
p1082
aS"Carter's, Inc."
p1083
a.